; Function Attrs: mustprogress nounwind uwtable
define internal void @_ZN32pxrInternal_v0_24__pxrReserved__7pxr_tsl17detail_robin_hash12bucket_entryINS_12_GLOBAL__N_14TaskELb1EED2Ev(ptr noundef nonnull align 8 dereferenceable(72) %0) unnamed_addr #8 align 2 personality ptr @__gxx_personality_v0 {
  %2 = getelementptr inbounds i8, ptr %0, i64 4
  %.val.i = load i16, ptr %2, align 4
  %3 = icmp eq i16 %.val.i, -1
  br i1 %3, label %_ZN32pxrInternal_v0_24__pxrReserved__7pxr_tsl17detail_robin_hash12bucket_entryINS_12_GLOBAL__N_14TaskELb1EE5clearEv.exit, label %4

4:                                                ; preds = %1
  %5 = getelementptr inbounds i8, ptr %0, i64 64
  %6 = load i32, ptr %5, align 8
  %.not.i.i.i.i.i = icmp eq i32 %6, 0
  br i1 %.not.i.i.i.i.i, label %_ZN32pxrInternal_v0_24__pxrReserved__7pxr_tsl17detail_robin_hash12bucket_entryINS_12_GLOBAL__N_14TaskELb1EE13destroy_valueEv.exit.i, label %7

7:                                                ; preds = %4
  %8 = and i32 %6, 255
  %9 = lshr i32 %6, 8
  %10 = zext nneg i32 %8 to i64
  %11 = getelementptr inbounds [257 x ptr], ptr @_ZN32pxrInternal_v0_24__pxrReserved__8Sdf_PoolINS_15Sdf_PathPrimTagELj24ELj8ELj16384EE13_regionStartsE, i64 0, i64 %10
  %12 = load ptr, ptr %11, align 8
  %13 = mul nuw nsw i32 %9, 24
  %14 = zext nneg i32 %13 to i64
  %15 = getelementptr inbounds i8, ptr %12, i64 %14
  %16 = getelementptr inbounds nuw i8, ptr %15, i64 8
  %17 = atomicrmw sub ptr %16, i32 1 seq_cst, align 4
  %18 = and i32 %17, 2147483647
  %19 = icmp eq i32 %18, 1
  br i1 %19, label %20, label %_ZN32pxrInternal_v0_24__pxrReserved__7pxr_tsl17detail_robin_hash12bucket_entryINS_12_GLOBAL__N_14TaskELb1EE13destroy_valueEv.exit.i

20:                                               ; preds = %7
  invoke void @_ZNK32pxrInternal_v0_24__pxrReserved__12Sdf_PathNode8_DestroyEv(ptr noundef nonnull align 8 dereferenceable(16) %15)
          to label %_ZN32pxrInternal_v0_24__pxrReserved__7pxr_tsl17detail_robin_hash12bucket_entryINS_12_GLOBAL__N_14TaskELb1EE13destroy_valueEv.exit.i unwind label %21

21:                                               ; preds = %20
  %22 = landingpad { ptr, i32 }
          catch ptr null
  %23 = extractvalue { ptr, i32 } %22, 0
  tail call void @__clang_call_terminate(ptr %23) #31
  unreachable

_ZN32pxrInternal_v0_24__pxrReserved__7pxr_tsl17detail_robin_hash12bucket_entryINS_12_GLOBAL__N_14TaskELb1EE13destroy_valueEv.exit.i: ; preds = %20, %7, %4
  %24 = getelementptr inbounds i8, ptr %0, i64 32
  tail call void @_ZNSt7__cxx1112basic_stringIcSt11char_traitsIcESaIcEED1Ev(ptr noundef nonnull align 8 dereferenceable(32) %24) #22
  store i16 -1, ptr %2, align 4
  br label %_ZN32pxrInternal_v0_24__pxrReserved__7pxr_tsl17detail_robin_hash12bucket_entryINS_12_GLOBAL__N_14TaskELb1EE5clearEv.exit

_ZN32pxrInternal_v0_24__pxrReserved__7pxr_tsl17detail_robin_hash12bucket_entryINS_12_GLOBAL__N_14TaskELb1EE5clearEv.exit: ; preds = %1, %_ZN32pxrInternal_v0_24__pxrReserved__7pxr_tsl17detail_robin_hash12bucket_entryINS_12_GLOBAL__N_14TaskELb1EE13destroy_valueEv.exit.i
  ret void
}